target datalayout = "e-m:e-p270:32:32-p271:32:32-p272:64:64-i64:64-i128:128-f80:128-n8:16:32:64-S128"
target triple = "x86_64-unknown-linux-gnu"

%"class.openvdb::v11_0::points::AttributeSet::Descriptor" = type { %"class.std::map", %"class.std::vector.3", %"class.std::map", %"class.openvdb::v11_0::MetaMap", %"class.openvdb::v11_0::points::future::Container", [5 x i64] }
%"class.std::vector.3" = type { %"struct.std::_Vector_base.4" }
%"struct.std::_Vector_base.4" = type { %"struct.std::_Vector_base<std::pair<std::__cxx11::basic_string<char>, std::__cxx11::basic_string<char>>, std::allocator<std::pair<std::__cxx11::basic_string<char>, std::__cxx11::basic_string<char>>>>::_Vector_impl" }
%"struct.std::_Vector_base<std::pair<std::__cxx11::basic_string<char>, std::__cxx11::basic_string<char>>, std::allocator<std::pair<std::__cxx11::basic_string<char>, std::__cxx11::basic_string<char>>>>::_Vector_impl" = type { %"struct.std::_Vector_base<std::pair<std::__cxx11::basic_string<char>, std::__cxx11::basic_string<char>>, std::allocator<std::pair<std::__cxx11::basic_string<char>, std::__cxx11::basic_string<char>>>>::_Vector_impl_data" }
%"struct.std::_Vector_base<std::pair<std::__cxx11::basic_string<char>, std::__cxx11::basic_string<char>>, std::allocator<std::pair<std::__cxx11::basic_string<char>, std::__cxx11::basic_string<char>>>>::_Vector_impl_data" = type { ptr, ptr, ptr }
%"class.std::map" = type { %"class.std::_Rb_tree" }
%"class.std::_Rb_tree" = type { %"struct.std::_Rb_tree<std::__cxx11::basic_string<char>, std::pair<const std::__cxx11::basic_string<char>, unsigned long>, std::_Select1st<std::pair<const std::__cxx11::basic_string<char>, unsigned long>>, std::less<std::__cxx11::basic_string<char>>>::_Rb_tree_impl" }
%"struct.std::_Rb_tree<std::__cxx11::basic_string<char>, std::pair<const std::__cxx11::basic_string<char>, unsigned long>, std::_Select1st<std::pair<const std::__cxx11::basic_string<char>, unsigned long>>, std::less<std::__cxx11::basic_string<char>>>::_Rb_tree_impl" = type { %"struct.std::_Rb_tree_key_compare", %"struct.std::_Rb_tree_header" }
%"struct.std::_Rb_tree_key_compare" = type { %"struct.std::less" }
%"struct.std::less" = type { i8 }
%"struct.std::_Rb_tree_header" = type { %"struct.std::_Rb_tree_node_base", i64 }
%"struct.std::_Rb_tree_node_base" = type { i32, ptr, ptr, ptr }
%"class.openvdb::v11_0::MetaMap" = type { ptr, %"class.std::map.8" }
%"class.std::map.8" = type { %"class.std::_Rb_tree.9" }
%"class.std::_Rb_tree.9" = type { %"struct.std::_Rb_tree<std::__cxx11::basic_string<char>, std::pair<const std::__cxx11::basic_string<char>, std::shared_ptr<openvdb::v11_0::Metadata>>, std::_Select1st<std::pair<const std::__cxx11::basic_string<char>, std::shared_ptr<openvdb::v11_0::Metadata>>>, std::less<std::__cxx11::basic_string<char>>>::_Rb_tree_impl" }
%"struct.std::_Rb_tree<std::__cxx11::basic_string<char>, std::pair<const std::__cxx11::basic_string<char>, std::shared_ptr<openvdb::v11_0::Metadata>>, std::_Select1st<std::pair<const std::__cxx11::basic_string<char>, std::shared_ptr<openvdb::v11_0::Metadata>>>, std::less<std::__cxx11::basic_string<char>>>::_Rb_tree_impl" = type { %"struct.std::_Rb_tree_key_compare", %"struct.std::_Rb_tree_header" }
%"class.openvdb::v11_0::points::future::Container" = type { %"class.std::vector.13" }
%"class.std::vector.13" = type { %"struct.std::_Vector_base.14" }
%"struct.std::_Vector_base.14" = type { %"struct.std::_Vector_base<std::shared_ptr<openvdb::v11_0::points::future::Container::Element>, std::allocator<std::shared_ptr<openvdb::v11_0::points::future::Container::Element>>>::_Vector_impl" }
%"struct.std::_Vector_base<std::shared_ptr<openvdb::v11_0::points::future::Container::Element>, std::allocator<std::shared_ptr<openvdb::v11_0::points::future::Container::Element>>>::_Vector_impl" = type { %"struct.std::_Vector_base<std::shared_ptr<openvdb::v11_0::points::future::Container::Element>, std::allocator<std::shared_ptr<openvdb::v11_0::points::future::Container::Element>>>::_Vector_impl_data" }
%"struct.std::_Vector_base<std::shared_ptr<openvdb::v11_0::points::future::Container::Element>, std::allocator<std::shared_ptr<openvdb::v11_0::points::future::Container::Element>>>::_Vector_impl_data" = type { ptr, ptr, ptr }

; Function Attrs: mustprogress nounwind uwtable
define linkonce_odr noundef i64 @_ZNKSt8_Rb_treeINSt7__cxx1112basic_stringIcSt11char_traitsIcESaIcEEESt4pairIKS5_mESt10_Select1stIS8_ESt4lessIS5_ESaIS8_EE4sizeEv(ptr noundef nonnull align 8 dereferenceable(48) %this) #7 comdat align 2 {
entry:
  %this.addr = alloca ptr, align 8
  store ptr %this, ptr %this.addr, align 8
  %this1 = load ptr, ptr %this.addr, align 8
  %_M_impl = getelementptr inbounds %"class.std::_Rb_tree", ptr %this1, i32 0, i32 0
  %add.ptr = getelementptr inbounds i8, ptr %_M_impl, i64 8
  %_M_node_count = getelementptr inbounds %"struct.std::_Rb_tree_header", ptr %add.ptr, i32 0, i32 1
  %0 = load i64, ptr %_M_node_count, align 8
  ret i64 %0
}

; Function Attrs: mustprogress nounwind uwtable
define linkonce_odr noundef i64 @_ZNKSt3mapINSt7__cxx1112basic_stringIcSt11char_traitsIcESaIcEEEmSt4lessIS5_ESaISt4pairIKS5_mEEE4sizeEv(ptr noundef nonnull align 8 dereferenceable(48) %this) #7 comdat align 2 {
entry:
  %this.addr = alloca ptr, align 8
  store ptr %this, ptr %this.addr, align 8
  %this1 = load ptr, ptr %this.addr, align 8
  %_M_t = getelementptr inbounds %"class.std::map", ptr %this1, i32 0, i32 0
  %call = call noundef i64 @_ZNKSt8_Rb_treeINSt7__cxx1112basic_stringIcSt11char_traitsIcESaIcEEESt4pairIKS5_mESt10_Select1stIS8_ESt4lessIS5_ESaIS8_EE4sizeEv(ptr noundef nonnull align 8 dereferenceable(48) %_M_t) #3
  ret i64 %call
}

; Function Attrs: mustprogress nounwind uwtable
define linkonce_odr noundef i64 @_ZN7openvdb5v11_06points12AttributeSet10Descriptor9groupBitsEv() #7 comdat align 2 {
entry:
  ret i64 8
}

; Function Attrs: mustprogress uwtable
define noundef i64 @_ZNK7openvdb5v11_06points12AttributeSet10Descriptor12unusedGroupsEv(ptr noundef nonnull align 8 dereferenceable(240) %this) #4 align 2 {
entry:
  %retval = alloca i64, align 8
  %this.addr = alloca ptr, align 8
  %availableGroups = alloca i64, align 8
  %usedGroups = alloca i64, align 8
  store ptr %this, ptr %this.addr, align 8
  %this1 = load ptr, ptr %this.addr, align 8
  %call = call noundef i64 @_ZNK7openvdb5v11_06points12AttributeSet10Descriptor15availableGroupsEv(ptr noundef nonnull align 8 dereferenceable(240) %this1)
  store i64 %call, ptr %availableGroups, align 8
  %0 = load i64, ptr %availableGroups, align 8
  %cmp = icmp eq i64 %0, 0
  br i1 %cmp, label %if.then, label %if.end

if.then:                                          ; preds = %entry
  store i64 0, ptr %retval, align 8
  br label %return

if.end:                                           ; preds = %entry
  %mGroupMap = getelementptr inbounds %"class.openvdb::v11_0::points::AttributeSet::Descriptor", ptr %this1, i32 0, i32 2
  %call2 = call noundef i64 @_ZNKSt3mapINSt7__cxx1112basic_stringIcSt11char_traitsIcESaIcEEEmSt4lessIS5_ESaISt4pairIKS5_mEEE4sizeEv(ptr noundef nonnull align 8 dereferenceable(48) %mGroupMap) #3
  store i64 %call2, ptr %usedGroups, align 8
  %1 = load i64, ptr %availableGroups, align 8
  %2 = load i64, ptr %usedGroups, align 8
  %sub = sub i64 %1, %2
  store i64 %sub, ptr %retval, align 8
  br label %return

return:                                           ; preds = %if.end, %if.then
  %3 = load i64, ptr %retval, align 8
  ret i64 %3
}

; Function Attrs: mustprogress uwtable
define noundef zeroext i1 @_ZNK7openvdb5v11_06points12AttributeSet10Descriptor16canCompactGroupsEv(ptr noundef nonnull align 8 dereferenceable(240) %this) #4 align 2 {
entry:
  %this.addr = alloca ptr, align 8
  store ptr %this, ptr %this.addr, align 8
  %this1 = load ptr, ptr %this.addr, align 8
  %call = call noundef i64 @_ZNK7openvdb5v11_06points12AttributeSet10Descriptor12unusedGroupsEv(ptr noundef nonnull align 8 dereferenceable(240) %this1)
  %call2 = call noundef i64 @_ZN7openvdb5v11_06points12AttributeSet10Descriptor9groupBitsEv()
  %cmp = icmp uge i64 %call, %call2
  ret i1 %cmp
}