; Function Attrs: mustprogress uwtable
define noundef zeroext i1 @_ZNK7openvdb5v11_06points12AttributeSet10Descriptor16canCompactGroupsEv(ptr nocapture noundef nonnull readonly align 8 dereferenceable(240) %this) local_unnamed_addr #3 align 2 {
entry:
  %call.i = tail call noundef i64 @_ZNK7openvdb5v11_06points12AttributeSet10Descriptor15availableGroupsEv(ptr noundef nonnull align 8 dereferenceable(240) %this)
  %cmp.i = icmp ne i64 %call.i, 0
  %_M_node_count.i.i.i = getelementptr inbounds i8, ptr %this, i64 112
  %0 = load i64, ptr %_M_node_count.i.i.i, align 8
  %sub.i = sub i64 %call.i, %0
  %cmp1 = icmp ugt i64 %sub.i, 7
  %cmp = select i1 %cmp.i, i1 %cmp1, i1 false
  ret i1 %cmp
}